target datalayout = "e-m:e-p270:32:32-p271:32:32-p272:64:64-i64:64-i128:128-f80:128-n8:16:32:64-S128"
target triple = "x86_64-pc-linux-gnu"

%struct.__sigset_t = type { [16 x i64] }
%struct.async = type { ptr, ptr, i32, i32, i64, i32, i32, i32 }

@async_key = internal global i32 0, align 4
@.str.66 = private unnamed_addr constant [40 x i8] c"unable to block SIGPIPE in async thread\00", align 1

; Function Attrs: inlinehint nounwind uwtable
define internal i32 @const_error() #7 {
  ret i32 -1
}

; Function Attrs: nounwind uwtable
define internal ptr @run_thread(ptr noundef %0) #0 {
  %2 = alloca ptr, align 8
  %3 = alloca ptr, align 8
  %4 = alloca ptr, align 8
  %5 = alloca i64, align 8
  %6 = alloca %struct.__sigset_t, align 8
  %7 = alloca i32, align 4
  store ptr %0, ptr %3, align 8, !tbaa !90
  call void @llvm.lifetime.start.p0(i64 8, ptr %4) #13
  %8 = load ptr, ptr %3, align 8, !tbaa !90
  store ptr %8, ptr %4, align 8, !tbaa !92
  call void @llvm.lifetime.start.p0(i64 8, ptr %5) #13
  %9 = load ptr, ptr %4, align 8, !tbaa !92
  %10 = getelementptr inbounds nuw %struct.async, ptr %9, i32 0, i32 7
  %11 = load i32, ptr %10, align 8, !tbaa !99
  %12 = icmp ne i32 %11, 0
  br i1 %12, label %13, label %28

13:                                               ; preds = %1
  call void @llvm.lifetime.start.p0(i64 128, ptr %6) #13
  %14 = call i32 @sigemptyset(ptr noundef %6) #13
  %15 = call i32 @sigaddset(ptr noundef %6, i32 noundef 13) #13
  %16 = call i32 @pthread_sigmask(i32 noundef 0, ptr noundef %6, ptr noundef null) #13
  %17 = icmp ne i32 %16, 0
  br i1 %17, label %18, label %24

18:                                               ; preds = %13
  %19 = call i32 (ptr, ...) @error(ptr noundef @.str.66)
  %20 = call i32 @const_error()
  %21 = sext i32 %20 to i64
  store i64 %21, ptr %5, align 8, !tbaa !91
  %22 = load i64, ptr %5, align 8, !tbaa !91
  %23 = inttoptr i64 %22 to ptr
  store ptr %23, ptr %2, align 8
  store i32 1, ptr %7, align 4
  br label %25

24:                                               ; preds = %13
  store i32 0, ptr %7, align 4
  br label %25

25:                                               ; preds = %24, %18
  call void @llvm.lifetime.end.p0(i64 128, ptr %6) #13
  %26 = load i32, ptr %7, align 4
  switch i32 %26, label %48 [
    i32 0, label %27
  ]

27:                                               ; preds = %25
  br label %28

28:                                               ; preds = %27, %1
  %29 = load i32, ptr @async_key, align 4, !tbaa !16
  %30 = load ptr, ptr %4, align 8, !tbaa !92
  %31 = call i32 @pthread_setspecific(i32 noundef %29, ptr noundef %30) #13
  %32 = load ptr, ptr %4, align 8, !tbaa !92
  %33 = getelementptr inbounds nuw %struct.async, ptr %32, i32 0, i32 0
  %34 = load ptr, ptr %33, align 8, !tbaa !100
  %35 = load ptr, ptr %4, align 8, !tbaa !92
  %36 = getelementptr inbounds nuw %struct.async, ptr %35, i32 0, i32 5
  %37 = load i32, ptr %36, align 8, !tbaa !97
  %38 = load ptr, ptr %4, align 8, !tbaa !92
  %39 = getelementptr inbounds nuw %struct.async, ptr %38, i32 0, i32 6
  %40 = load i32, ptr %39, align 4, !tbaa !98
  %41 = load ptr, ptr %4, align 8, !tbaa !92
  %42 = getelementptr inbounds nuw %struct.async, ptr %41, i32 0, i32 1
  %43 = load ptr, ptr %42, align 8, !tbaa !101
  %44 = call i32 %34(i32 noundef %37, i32 noundef %40, ptr noundef %43)
  %45 = sext i32 %44 to i64
  store i64 %45, ptr %5, align 8, !tbaa !91
  %46 = load i64, ptr %5, align 8, !tbaa !91
  %47 = inttoptr i64 %46 to ptr
  store ptr %47, ptr %2, align 8
  store i32 1, ptr %7, align 4
  br label %48

48:                                               ; preds = %28, %25
  call void @llvm.lifetime.end.p0(i64 8, ptr %5) #13
  call void @llvm.lifetime.end.p0(i64 8, ptr %4) #13
  %49 = load ptr, ptr %2, align 8
  ret ptr %49
}