; Function Attrs: nounwind uwtable
define internal ptr @run_thread(ptr noundef %0) #3 {
  %2 = alloca %struct.__sigset_t, align 8
  %3 = getelementptr inbounds nuw i8, ptr %0, i64 40
  %4 = load i32, ptr %3, align 8, !tbaa !88
  %.not = icmp eq i32 %4, 0
  br i1 %.not, label %11, label %5

5:                                                ; preds = %1
  call void @llvm.lifetime.start.p0(i64 128, ptr nonnull %2) #21
  %6 = call i32 @sigemptyset(ptr noundef nonnull %2) #21
  %7 = call i32 @sigaddset(ptr noundef nonnull %2, i32 noundef 13) #21
  %8 = call i32 @pthread_sigmask(i32 noundef 0, ptr noundef nonnull %2, ptr noundef null) #21
  %.not11 = icmp eq i32 %8, 0
  br i1 %.not11, label %.critedge, label %9

9:                                                ; preds = %5
  %10 = call i32 (ptr, ...) @error(ptr noundef nonnull @.str.66) #21
  call void @llvm.lifetime.end.p0(i64 128, ptr nonnull %2) #21
  br label %24

.critedge:                                        ; preds = %5
  call void @llvm.lifetime.end.p0(i64 128, ptr nonnull %2) #21
  br label %11

11:                                               ; preds = %.critedge, %1
  %12 = load i32, ptr @async_key, align 4, !tbaa !18
  %13 = call i32 @pthread_setspecific(i32 noundef %12, ptr noundef nonnull %0) #21
  %14 = load ptr, ptr %0, align 8, !tbaa !89
  %15 = getelementptr inbounds nuw i8, ptr %0, i64 32
  %16 = load i32, ptr %15, align 8, !tbaa !86
  %17 = getelementptr inbounds nuw i8, ptr %0, i64 36
  %18 = load i32, ptr %17, align 4, !tbaa !87
  %19 = getelementptr inbounds nuw i8, ptr %0, i64 8
  %20 = load ptr, ptr %19, align 8, !tbaa !90
  %21 = call i32 %14(i32 noundef %16, i32 noundef %18, ptr noundef %20) #21
  %22 = sext i32 %21 to i64
  %23 = inttoptr i64 %22 to ptr
  br label %24

24:                                               ; preds = %9, %11
  %.1 = phi ptr [ %23, %11 ], [ inttoptr (i64 -1 to ptr), %9 ]
  ret ptr %.1
}